target datalayout = "e-m:e-p270:32:32-p271:32:32-p272:64:64-i64:64-i128:128-f80:128-n8:16:32:64-S128"
target triple = "x86_64-pc-linux-gnu"

%struct.TT_GraphicsState_ = type { i16, i16, i16, %struct.FT_UnitVector_, %struct.FT_UnitVector_, %struct.FT_UnitVector_, i64, i64, i32, i8, i64, i64, i64, i16, i16, i8, i8, i32, i16, i16, i16 }
%struct.FT_UnitVector_ = type { i16, i16 }
%struct.TT_GlyphZoneRec_ = type { ptr, i16, i16, i16, i16, ptr, ptr, ptr, ptr, ptr, i16 }
%struct.FT_Size_Metrics_ = type { i16, i16, i64, i64, i64, i64, i64, i64 }
%struct.TT_Size_Metrics_ = type { i64, i64, i16, i64, i64, [4 x i64], i8, i8, i8 }
%struct.TT_CodeRange_ = type { ptr, i64 }
%struct.TT_ExecContextRec_ = type { ptr, ptr, ptr, i32, i64, i64, ptr, i64, i64, %struct.TT_GlyphZoneRec_, %struct.TT_GlyphZoneRec_, %struct.TT_GlyphZoneRec_, %struct.TT_GlyphZoneRec_, %struct.TT_GlyphZoneRec_, i64, %struct.FT_Size_Metrics_, %struct.TT_Size_Metrics_, %struct.TT_GraphicsState_, i32, i32, ptr, i64, i64, i8, i32, i8, i64, ptr, i64, ptr, i32, ptr, i32, i32, ptr, i32, i32, ptr, i32, i32, i32, i32, ptr, i16, i16, [3 x %struct.TT_CodeRange_], i16, ptr, i16, ptr, i64, i64, i64, i8, %struct.TT_GraphicsState_, i8, i8, i64, ptr, ptr, ptr, ptr, ptr, ptr, ptr, ptr, ptr, ptr, i8, i8, i8, i8, i8, i8, i8, i64, i64, i64, i64 }

; Function Attrs: nounwind uwtable
define internal i64 @Round_Down_To_Grid(ptr noundef %0, i64 noundef %1, i32 noundef %2) #0 {
  %4 = alloca ptr, align 8
  %5 = alloca i64, align 8
  %6 = alloca i32, align 4
  %7 = alloca i64, align 8
  %8 = alloca i64, align 8
  store ptr %0, ptr %4, align 8
  store i64 %1, ptr %5, align 8
  store i32 %2, ptr %6, align 4
  %9 = load ptr, ptr %4, align 8
  %10 = getelementptr inbounds %struct.TT_ExecContextRec_, ptr %9, i32 0, i32 16
  %11 = getelementptr inbounds %struct.TT_Size_Metrics_, ptr %10, i32 0, i32 5
  %12 = load i32, ptr %6, align 4
  %13 = sext i32 %12 to i64
  %14 = getelementptr inbounds [4 x i64], ptr %11, i64 0, i64 %13
  %15 = load i64, ptr %14, align 8
  store i64 %15, ptr %7, align 8
  %16 = load i64, ptr %5, align 8
  %17 = icmp sge i64 %16, 0
  br i1 %17, label %18, label %27

18:                                               ; preds = %3
  %19 = load i64, ptr %5, align 8
  %20 = load i64, ptr %7, align 8
  %21 = add i64 %19, %20
  %22 = and i64 %21, -64
  store i64 %22, ptr %8, align 8
  %23 = load i64, ptr %8, align 8
  %24 = icmp slt i64 %23, 0
  br i1 %24, label %25, label %26

25:                                               ; preds = %18
  store i64 0, ptr %8, align 8
  br label %26

26:                                               ; preds = %25, %18
  br label %37

27:                                               ; preds = %3
  %28 = load i64, ptr %7, align 8
  %29 = load i64, ptr %5, align 8
  %30 = sub i64 %28, %29
  %31 = and i64 %30, -64
  %32 = sub i64 0, %31
  store i64 %32, ptr %8, align 8
  %33 = load i64, ptr %8, align 8
  %34 = icmp sgt i64 %33, 0
  br i1 %34, label %35, label %36

35:                                               ; preds = %27
  store i64 0, ptr %8, align 8
  br label %36

36:                                               ; preds = %35, %27
  br label %37

37:                                               ; preds = %36, %26
  %38 = load i64, ptr %8, align 8
  ret i64 %38
}